target datalayout = "e-m:e-p270:32:32-p271:32:32-p272:64:64-i64:64-i128:128-f80:128-n8:16:32:64-S128"
target triple = "x86_64-pc-linux-gnu"

%struct.expert_field = type { i32, i32 }

@hf_application_parameter = internal global i32 0, align 4
@hf_application_parameter_length = internal global i32 0, align 4
@hf_application_parameter_data = internal global i32 0, align 4
@hf_bip_application_parameter_id = internal global i32 0, align 4
@hf_bip_application_parameter_data_number_of_returned_handles = internal global i32 0, align 4
@hf_bip_application_parameter_data_list_start_offset = internal global i32 0, align 4
@hf_bip_application_parameter_data_latest_captured_images = internal global i32 0, align 4
@hf_bip_application_parameter_data_partial_file_length = internal global i32 0, align 4
@hf_bip_application_parameter_data_partial_file_start_offset = internal global i32 0, align 4
@hf_bip_application_parameter_data_total_file_size = internal global i32 0, align 4
@hf_bip_application_parameter_data_end_flag = internal global i32 0, align 4
@hf_bip_application_parameter_data_remote_display = internal global i32 0, align 4
@hf_bip_application_parameter_data_service_id = internal global i32 0, align 4
@hf_bip_application_parameter_data_store_flag = internal global i32 0, align 4
@ett_obex_application_parameters = internal global i32 0, align 4
@ei_application_parameter_length_bad = internal global %struct.expert_field zeroinitializer, align 4
@.str.702 = private unnamed_addr constant [8 x i8] c"Unknown\00", align 1
@.str.776 = private unnamed_addr constant [14 x i8] c"Parameter: %s\00", align 1
@dissect_obex_application_parameter_bt_bip.required_length_map = internal global [11 x i32] [i32 0, i32 2, i32 2, i32 1, i32 4, i32 4, i32 4, i32 1, i32 1, i32 16, i32 1], align 16
@.str.778 = private unnamed_addr constant [83 x i8] c"According to the specification this parameter length should be %i, but there is %i\00", align 1

; Function Attrs: null_pointer_is_valid sspstrong uwtable
define internal i32 @dissect_obex_application_parameter_bt_bip(ptr noundef %0, ptr noundef %1, ptr noundef %2, ptr noundef %3) #0 {
  %5 = alloca ptr, align 8
  %6 = alloca ptr, align 8
  %7 = alloca ptr, align 8
  %8 = alloca ptr, align 8
  %9 = alloca ptr, align 8
  %10 = alloca ptr, align 8
  %11 = alloca ptr, align 8
  %12 = alloca i8, align 1
  %13 = alloca i32, align 4
  %14 = alloca i32, align 4
  %15 = alloca i32, align 4
  store ptr %0, ptr %5, align 8
  store ptr %1, ptr %6, align 8
  store ptr %2, ptr %7, align 8
  store ptr %3, ptr %8, align 8
  call void @llvm.lifetime.start.p0(i64 8, ptr %9) #7
  call void @llvm.lifetime.start.p0(i64 8, ptr %10) #7
  call void @llvm.lifetime.start.p0(i64 8, ptr %11) #7
  call void @llvm.lifetime.start.p0(i64 1, ptr %12) #7
  call void @llvm.lifetime.start.p0(i64 4, ptr %13) #7
  store i32 0, ptr %13, align 4
  call void @llvm.lifetime.start.p0(i64 4, ptr %14) #7
  call void @llvm.lifetime.start.p0(i64 4, ptr %15) #7
  %16 = load ptr, ptr %5, align 8
  %17 = call i32 @tvb_reported_length(ptr noundef %16)
  store i32 %17, ptr %14, align 4
  br label %18

18:                                               ; preds = %193, %4
  %19 = load i32, ptr %14, align 4
  %20 = icmp sgt i32 %19, 0
  br i1 %20, label %21, label %201

21:                                               ; preds = %18
  %22 = load ptr, ptr %5, align 8
  %23 = load i32, ptr %13, align 4
  %24 = call zeroext i8 @tvb_get_uint8(ptr noundef %22, i32 noundef %23)
  store i8 %24, ptr %12, align 1
  %25 = load ptr, ptr %5, align 8
  %26 = load i32, ptr %13, align 4
  %27 = add i32 %26, 1
  %28 = call zeroext i8 @tvb_get_uint8(ptr noundef %25, i32 noundef %27)
  %29 = zext i8 %28 to i32
  store i32 %29, ptr %15, align 4
  %30 = load ptr, ptr %7, align 8
  %31 = load i32, ptr @hf_application_parameter, align 4
  %32 = load ptr, ptr %5, align 8
  %33 = load i32, ptr %13, align 4
  %34 = load i32, ptr %15, align 4
  %35 = add i32 %34, 2
  %36 = load i8, ptr %12, align 1
  %37 = zext i8 %36 to i32
  %38 = call ptr @val_to_str_const(i32 noundef %37, ptr noundef @bip_application_parameters_vals, ptr noundef @.str.702)
  %39 = call ptr (ptr, i32, ptr, i32, i32, ptr, ...) @proto_tree_add_none_format(ptr noundef %30, i32 noundef %31, ptr noundef %32, i32 noundef %33, i32 noundef %35, ptr noundef @.str.776, ptr noundef %38)
  store ptr %39, ptr %10, align 8
  %40 = load ptr, ptr %10, align 8
  %41 = load i32, ptr @ett_obex_application_parameters, align 4
  %42 = call ptr @proto_item_add_subtree(ptr noundef %40, i32 noundef %41)
  store ptr %42, ptr %11, align 8
  %43 = load ptr, ptr %11, align 8
  %44 = load i32, ptr @hf_bip_application_parameter_id, align 4
  %45 = load ptr, ptr %5, align 8
  %46 = load i32, ptr %13, align 4
  %47 = call ptr @proto_tree_add_item(ptr noundef %43, i32 noundef %44, ptr noundef %45, i32 noundef %46, i32 noundef 1, i32 noundef 0)
  %48 = load i32, ptr %13, align 4
  %49 = add i32 %48, 1
  store i32 %49, ptr %13, align 4
  %50 = load ptr, ptr %11, align 8
  %51 = load i32, ptr @hf_application_parameter_length, align 4
  %52 = load ptr, ptr %5, align 8
  %53 = load i32, ptr %13, align 4
  %54 = call ptr @proto_tree_add_item(ptr noundef %50, i32 noundef %51, ptr noundef %52, i32 noundef %53, i32 noundef 1, i32 noundef 0)
  store ptr %54, ptr %9, align 8
  %55 = load i32, ptr %13, align 4
  %56 = add i32 %55, 1
  store i32 %56, ptr %13, align 4
  %57 = load i8, ptr %12, align 1
  %58 = zext i8 %57 to i64
  %59 = icmp ult i64 %58, 11
  br i1 %59, label %60, label %82

60:                                               ; preds = %21
  %61 = load i8, ptr %12, align 1
  %62 = zext i8 %61 to i64
  %63 = getelementptr [11 x i32], ptr @dissect_obex_application_parameter_bt_bip.required_length_map, i64 0, i64 %62
  %64 = load i32, ptr %63, align 4
  %65 = load i32, ptr %15, align 4
  %66 = icmp ne i32 %64, %65
  br i1 %66, label %67, label %82

67:                                               ; preds = %60
  %68 = load ptr, ptr %11, align 8
  %69 = load i32, ptr @hf_application_parameter_data, align 4
  %70 = load ptr, ptr %5, align 8
  %71 = load i32, ptr %13, align 4
  %72 = load i32, ptr %15, align 4
  %73 = call ptr @proto_tree_add_item(ptr noundef %68, i32 noundef %69, ptr noundef %70, i32 noundef %71, i32 noundef %72, i32 noundef 0)
  %74 = load ptr, ptr %6, align 8
  %75 = load ptr, ptr %9, align 8
  %76 = load i8, ptr %12, align 1
  %77 = zext i8 %76 to i64
  %78 = getelementptr [11 x i32], ptr @dissect_obex_application_parameter_bt_bip.required_length_map, i64 0, i64 %77
  %79 = load i32, ptr %78, align 4
  %80 = load i32, ptr %15, align 4
  %81 = call ptr (ptr, ptr, ptr, ptr, ...) @expert_add_info_format(ptr noundef %74, ptr noundef %75, ptr noundef @ei_application_parameter_length_bad, ptr noundef @.str.778, i32 noundef %79, i32 noundef %80)
  br label %193

82:                                               ; preds = %60, %21
  %83 = load i8, ptr %12, align 1
  %84 = zext i8 %83 to i32
  switch i32 %84, label %185 [
    i32 1, label %85
    i32 2, label %95
    i32 3, label %105
    i32 4, label %115
    i32 5, label %125
    i32 6, label %135
    i32 7, label %145
    i32 8, label %155
    i32 9, label %165
    i32 10, label %175
  ]

85:                                               ; preds = %82
  %86 = load ptr, ptr %11, align 8
  %87 = load i32, ptr @hf_bip_application_parameter_data_number_of_returned_handles, align 4
  %88 = load ptr, ptr %5, align 8
  %89 = load i32, ptr %13, align 4
  %90 = load i8, ptr %12, align 1
  %91 = zext i8 %90 to i64
  %92 = getelementptr [11 x i32], ptr @dissect_obex_application_parameter_bt_bip.required_length_map, i64 0, i64 %91
  %93 = load i32, ptr %92, align 4
  %94 = call ptr @proto_tree_add_item(ptr noundef %86, i32 noundef %87, ptr noundef %88, i32 noundef %89, i32 noundef %93, i32 noundef 0)
  br label %192

95:                                               ; preds = %82
  %96 = load ptr, ptr %11, align 8
  %97 = load i32, ptr @hf_bip_application_parameter_data_list_start_offset, align 4
  %98 = load ptr, ptr %5, align 8
  %99 = load i32, ptr %13, align 4
  %100 = load i8, ptr %12, align 1
  %101 = zext i8 %100 to i64
  %102 = getelementptr [11 x i32], ptr @dissect_obex_application_parameter_bt_bip.required_length_map, i64 0, i64 %101
  %103 = load i32, ptr %102, align 4
  %104 = call ptr @proto_tree_add_item(ptr noundef %96, i32 noundef %97, ptr noundef %98, i32 noundef %99, i32 noundef %103, i32 noundef 0)
  br label %192

105:                                              ; preds = %82
  %106 = load ptr, ptr %11, align 8
  %107 = load i32, ptr @hf_bip_application_parameter_data_latest_captured_images, align 4
  %108 = load ptr, ptr %5, align 8
  %109 = load i32, ptr %13, align 4
  %110 = load i8, ptr %12, align 1
  %111 = zext i8 %110 to i64
  %112 = getelementptr [11 x i32], ptr @dissect_obex_application_parameter_bt_bip.required_length_map, i64 0, i64 %111
  %113 = load i32, ptr %112, align 4
  %114 = call ptr @proto_tree_add_item(ptr noundef %106, i32 noundef %107, ptr noundef %108, i32 noundef %109, i32 noundef %113, i32 noundef 0)
  br label %192

115:                                              ; preds = %82
  %116 = load ptr, ptr %11, align 8
  %117 = load i32, ptr @hf_bip_application_parameter_data_partial_file_length, align 4
  %118 = load ptr, ptr %5, align 8
  %119 = load i32, ptr %13, align 4
  %120 = load i8, ptr %12, align 1
  %121 = zext i8 %120 to i64
  %122 = getelementptr [11 x i32], ptr @dissect_obex_application_parameter_bt_bip.required_length_map, i64 0, i64 %121
  %123 = load i32, ptr %122, align 4
  %124 = call ptr @proto_tree_add_item(ptr noundef %116, i32 noundef %117, ptr noundef %118, i32 noundef %119, i32 noundef %123, i32 noundef 0)
  br label %192

125:                                              ; preds = %82
  %126 = load ptr, ptr %11, align 8
  %127 = load i32, ptr @hf_bip_application_parameter_data_partial_file_start_offset, align 4
  %128 = load ptr, ptr %5, align 8
  %129 = load i32, ptr %13, align 4
  %130 = load i8, ptr %12, align 1
  %131 = zext i8 %130 to i64
  %132 = getelementptr [11 x i32], ptr @dissect_obex_application_parameter_bt_bip.required_length_map, i64 0, i64 %131
  %133 = load i32, ptr %132, align 4
  %134 = call ptr @proto_tree_add_item(ptr noundef %126, i32 noundef %127, ptr noundef %128, i32 noundef %129, i32 noundef %133, i32 noundef 0)
  br label %192

135:                                              ; preds = %82
  %136 = load ptr, ptr %11, align 8
  %137 = load i32, ptr @hf_bip_application_parameter_data_total_file_size, align 4
  %138 = load ptr, ptr %5, align 8
  %139 = load i32, ptr %13, align 4
  %140 = load i8, ptr %12, align 1
  %141 = zext i8 %140 to i64
  %142 = getelementptr [11 x i32], ptr @dissect_obex_application_parameter_bt_bip.required_length_map, i64 0, i64 %141
  %143 = load i32, ptr %142, align 4
  %144 = call ptr @proto_tree_add_item(ptr noundef %136, i32 noundef %137, ptr noundef %138, i32 noundef %139, i32 noundef %143, i32 noundef 0)
  br label %192

145:                                              ; preds = %82
  %146 = load ptr, ptr %11, align 8
  %147 = load i32, ptr @hf_bip_application_parameter_data_end_flag, align 4
  %148 = load ptr, ptr %5, align 8
  %149 = load i32, ptr %13, align 4
  %150 = load i8, ptr %12, align 1
  %151 = zext i8 %150 to i64
  %152 = getelementptr [11 x i32], ptr @dissect_obex_application_parameter_bt_bip.required_length_map, i64 0, i64 %151
  %153 = load i32, ptr %152, align 4
  %154 = call ptr @proto_tree_add_item(ptr noundef %146, i32 noundef %147, ptr noundef %148, i32 noundef %149, i32 noundef %153, i32 noundef 0)
  br label %192

155:                                              ; preds = %82
  %156 = load ptr, ptr %11, align 8
  %157 = load i32, ptr @hf_bip_application_parameter_data_remote_display, align 4
  %158 = load ptr, ptr %5, align 8
  %159 = load i32, ptr %13, align 4
  %160 = load i8, ptr %12, align 1
  %161 = zext i8 %160 to i64
  %162 = getelementptr [11 x i32], ptr @dissect_obex_application_parameter_bt_bip.required_length_map, i64 0, i64 %161
  %163 = load i32, ptr %162, align 4
  %164 = call ptr @proto_tree_add_item(ptr noundef %156, i32 noundef %157, ptr noundef %158, i32 noundef %159, i32 noundef %163, i32 noundef 0)
  br label %192

165:                                              ; preds = %82
  %166 = load ptr, ptr %11, align 8
  %167 = load i32, ptr @hf_bip_application_parameter_data_service_id, align 4
  %168 = load ptr, ptr %5, align 8
  %169 = load i32, ptr %13, align 4
  %170 = load i8, ptr %12, align 1
  %171 = zext i8 %170 to i64
  %172 = getelementptr [11 x i32], ptr @dissect_obex_application_parameter_bt_bip.required_length_map, i64 0, i64 %171
  %173 = load i32, ptr %172, align 4
  %174 = call ptr @proto_tree_add_item(ptr noundef %166, i32 noundef %167, ptr noundef %168, i32 noundef %169, i32 noundef %173, i32 noundef 0)
  br label %192

175:                                              ; preds = %82
  %176 = load ptr, ptr %11, align 8
  %177 = load i32, ptr @hf_bip_application_parameter_data_store_flag, align 4
  %178 = load ptr, ptr %5, align 8
  %179 = load i32, ptr %13, align 4
  %180 = load i8, ptr %12, align 1
  %181 = zext i8 %180 to i64
  %182 = getelementptr [11 x i32], ptr @dissect_obex_application_parameter_bt_bip.required_length_map, i64 0, i64 %181
  %183 = load i32, ptr %182, align 4
  %184 = call ptr @proto_tree_add_item(ptr noundef %176, i32 noundef %177, ptr noundef %178, i32 noundef %179, i32 noundef %183, i32 noundef 0)
  br label %192

185:                                              ; preds = %82
  %186 = load ptr, ptr %11, align 8
  %187 = load i32, ptr @hf_application_parameter_data, align 4
  %188 = load ptr, ptr %5, align 8
  %189 = load i32, ptr %13, align 4
  %190 = load i32, ptr %15, align 4
  %191 = call ptr @proto_tree_add_item(ptr noundef %186, i32 noundef %187, ptr noundef %188, i32 noundef %189, i32 noundef %190, i32 noundef 0)
  br label %192

192:                                              ; preds = %185, %175, %165, %155, %145, %135, %125, %115, %105, %95, %85
  br label %193

193:                                              ; preds = %192, %67
  %194 = load i32, ptr %15, align 4
  %195 = add i32 2, %194
  %196 = load i32, ptr %14, align 4
  %197 = sub i32 %196, %195
  store i32 %197, ptr %14, align 4
  %198 = load i32, ptr %15, align 4
  %199 = load i32, ptr %13, align 4
  %200 = add i32 %199, %198
  store i32 %200, ptr %13, align 4
  br label %18, !llvm.loop !12

201:                                              ; preds = %18
  %202 = load i32, ptr %13, align 4
  call void @llvm.lifetime.end.p0(i64 4, ptr %15) #7
  call void @llvm.lifetime.end.p0(i64 4, ptr %14) #7
  call void @llvm.lifetime.end.p0(i64 4, ptr %13) #7
  call void @llvm.lifetime.end.p0(i64 1, ptr %12) #7
  call void @llvm.lifetime.end.p0(i64 8, ptr %11) #7
  call void @llvm.lifetime.end.p0(i64 8, ptr %10) #7
  call void @llvm.lifetime.end.p0(i64 8, ptr %9) #7
  ret i32 %202
}