; Function Attrs: null_pointer_is_valid sspstrong uwtable
define internal i32 @dissect_obex_application_parameter_bt_bip(ptr noundef %0, ptr noundef %1, ptr noundef %2, ptr readnone captures(none) %3) #0 {
  %5 = tail call i32 @tvb_reported_length(ptr noundef %0)
  %6 = icmp sgt i32 %5, 0
  br i1 %6, label %.lr.ph, label %._crit_edge

.lr.ph:                                           ; preds = %4, %86
  %.084 = phi i32 [ %88, %86 ], [ 0, %4 ]
  %.08083 = phi i32 [ %87, %86 ], [ %5, %4 ]
  %7 = tail call zeroext i8 @tvb_get_uint8(ptr noundef %0, i32 noundef %.084)
  %8 = add i32 %.084, 1
  %9 = tail call zeroext i8 @tvb_get_uint8(ptr noundef %0, i32 noundef %8)
  %10 = zext i8 %9 to i32
  %11 = load i32, ptr @hf_application_parameter, align 4
  %12 = add nuw nsw i32 %10, 2
  %13 = zext i8 %7 to i32
  %14 = tail call ptr @val_to_str_const(i32 noundef %13, ptr noundef nonnull @bip_application_parameters_vals, ptr noundef nonnull @.str.702)
  %15 = tail call ptr (ptr, i32, ptr, i32, i32, ptr, ...) @proto_tree_add_none_format(ptr noundef %2, i32 noundef %11, ptr noundef %0, i32 noundef %.084, i32 noundef %12, ptr noundef nonnull @.str.776, ptr noundef %14)
  %16 = load i32, ptr @ett_obex_application_parameters, align 4
  %17 = tail call ptr @proto_item_add_subtree(ptr noundef %15, i32 noundef %16)
  %18 = load i32, ptr @hf_bip_application_parameter_id, align 4
  %19 = tail call ptr @proto_tree_add_item(ptr noundef %17, i32 noundef %18, ptr noundef %0, i32 noundef %.084, i32 noundef 1, i32 noundef 0)
  %20 = load i32, ptr @hf_application_parameter_length, align 4
  %21 = tail call ptr @proto_tree_add_item(ptr noundef %17, i32 noundef %20, ptr noundef %0, i32 noundef %8, i32 noundef 1, i32 noundef 0)
  %22 = add i32 %.084, 2
  %23 = zext i8 %7 to i64
  %24 = icmp ult i8 %7, 11
  br i1 %24, label %25, label %32

25:                                               ; preds = %.lr.ph
  %26 = getelementptr [11 x i32], ptr @dissect_obex_application_parameter_bt_bip.required_length_map, i64 0, i64 %23
  %27 = load i32, ptr %26, align 4
  %.not = icmp eq i32 %27, %10
  br i1 %.not, label %32, label %28

28:                                               ; preds = %25
  %29 = load i32, ptr @hf_application_parameter_data, align 4
  %30 = tail call ptr @proto_tree_add_item(ptr noundef %17, i32 noundef %29, ptr noundef %0, i32 noundef %22, i32 noundef %10, i32 noundef 0)
  %31 = tail call ptr (ptr, ptr, ptr, ptr, ...) @expert_add_info_format(ptr noundef %1, ptr noundef %21, ptr noundef nonnull @ei_application_parameter_length_bad, ptr noundef nonnull @.str.778, i32 noundef %27, i32 noundef %10)
  br label %86

32:                                               ; preds = %25, %.lr.ph
  switch i8 %7, label %83 [
    i8 1, label %33
    i8 2, label %38
    i8 3, label %43
    i8 4, label %48
    i8 5, label %53
    i8 6, label %58
    i8 7, label %63
    i8 8, label %68
    i8 9, label %73
    i8 10, label %78
  ]

33:                                               ; preds = %32
  %34 = load i32, ptr @hf_bip_application_parameter_data_number_of_returned_handles, align 4
  %35 = getelementptr [11 x i32], ptr @dissect_obex_application_parameter_bt_bip.required_length_map, i64 0, i64 %23
  %36 = load i32, ptr %35, align 4
  %37 = tail call ptr @proto_tree_add_item(ptr noundef %17, i32 noundef %34, ptr noundef %0, i32 noundef %22, i32 noundef %36, i32 noundef 0)
  br label %86

38:                                               ; preds = %32
  %39 = load i32, ptr @hf_bip_application_parameter_data_list_start_offset, align 4
  %40 = getelementptr [11 x i32], ptr @dissect_obex_application_parameter_bt_bip.required_length_map, i64 0, i64 %23
  %41 = load i32, ptr %40, align 4
  %42 = tail call ptr @proto_tree_add_item(ptr noundef %17, i32 noundef %39, ptr noundef %0, i32 noundef %22, i32 noundef %41, i32 noundef 0)
  br label %86

43:                                               ; preds = %32
  %44 = load i32, ptr @hf_bip_application_parameter_data_latest_captured_images, align 4
  %45 = getelementptr [11 x i32], ptr @dissect_obex_application_parameter_bt_bip.required_length_map, i64 0, i64 %23
  %46 = load i32, ptr %45, align 4
  %47 = tail call ptr @proto_tree_add_item(ptr noundef %17, i32 noundef %44, ptr noundef %0, i32 noundef %22, i32 noundef %46, i32 noundef 0)
  br label %86

48:                                               ; preds = %32
  %49 = load i32, ptr @hf_bip_application_parameter_data_partial_file_length, align 4
  %50 = getelementptr [11 x i32], ptr @dissect_obex_application_parameter_bt_bip.required_length_map, i64 0, i64 %23
  %51 = load i32, ptr %50, align 4
  %52 = tail call ptr @proto_tree_add_item(ptr noundef %17, i32 noundef %49, ptr noundef %0, i32 noundef %22, i32 noundef %51, i32 noundef 0)
  br label %86

53:                                               ; preds = %32
  %54 = load i32, ptr @hf_bip_application_parameter_data_partial_file_start_offset, align 4
  %55 = getelementptr [11 x i32], ptr @dissect_obex_application_parameter_bt_bip.required_length_map, i64 0, i64 %23
  %56 = load i32, ptr %55, align 4
  %57 = tail call ptr @proto_tree_add_item(ptr noundef %17, i32 noundef %54, ptr noundef %0, i32 noundef %22, i32 noundef %56, i32 noundef 0)
  br label %86

58:                                               ; preds = %32
  %59 = load i32, ptr @hf_bip_application_parameter_data_total_file_size, align 4
  %60 = getelementptr [11 x i32], ptr @dissect_obex_application_parameter_bt_bip.required_length_map, i64 0, i64 %23
  %61 = load i32, ptr %60, align 4
  %62 = tail call ptr @proto_tree_add_item(ptr noundef %17, i32 noundef %59, ptr noundef %0, i32 noundef %22, i32 noundef %61, i32 noundef 0)
  br label %86

63:                                               ; preds = %32
  %64 = load i32, ptr @hf_bip_application_parameter_data_end_flag, align 4
  %65 = getelementptr [11 x i32], ptr @dissect_obex_application_parameter_bt_bip.required_length_map, i64 0, i64 %23
  %66 = load i32, ptr %65, align 4
  %67 = tail call ptr @proto_tree_add_item(ptr noundef %17, i32 noundef %64, ptr noundef %0, i32 noundef %22, i32 noundef %66, i32 noundef 0)
  br label %86

68:                                               ; preds = %32
  %69 = load i32, ptr @hf_bip_application_parameter_data_remote_display, align 4
  %70 = getelementptr [11 x i32], ptr @dissect_obex_application_parameter_bt_bip.required_length_map, i64 0, i64 %23
  %71 = load i32, ptr %70, align 4
  %72 = tail call ptr @proto_tree_add_item(ptr noundef %17, i32 noundef %69, ptr noundef %0, i32 noundef %22, i32 noundef %71, i32 noundef 0)
  br label %86

73:                                               ; preds = %32
  %74 = load i32, ptr @hf_bip_application_parameter_data_service_id, align 4
  %75 = getelementptr [11 x i32], ptr @dissect_obex_application_parameter_bt_bip.required_length_map, i64 0, i64 %23
  %76 = load i32, ptr %75, align 4
  %77 = tail call ptr @proto_tree_add_item(ptr noundef %17, i32 noundef %74, ptr noundef %0, i32 noundef %22, i32 noundef %76, i32 noundef 0)
  br label %86

78:                                               ; preds = %32
  %79 = load i32, ptr @hf_bip_application_parameter_data_store_flag, align 4
  %80 = getelementptr [11 x i32], ptr @dissect_obex_application_parameter_bt_bip.required_length_map, i64 0, i64 %23
  %81 = load i32, ptr %80, align 4
  %82 = tail call ptr @proto_tree_add_item(ptr noundef %17, i32 noundef %79, ptr noundef %0, i32 noundef %22, i32 noundef %81, i32 noundef 0)
  br label %86

83:                                               ; preds = %32
  %84 = load i32, ptr @hf_application_parameter_data, align 4
  %85 = tail call ptr @proto_tree_add_item(ptr noundef %17, i32 noundef %84, ptr noundef %0, i32 noundef %22, i32 noundef %10, i32 noundef 0)
  br label %86

86:                                               ; preds = %33, %38, %43, %48, %53, %58, %63, %68, %73, %78, %83, %28
  %87 = sub nsw i32 %.08083, %12
  %88 = add i32 %22, %10
  %89 = icmp sgt i32 %87, 0
  br i1 %89, label %.lr.ph, label %._crit_edge, !llvm.loop !18

._crit_edge:                                      ; preds = %86, %4
  %.0.lcssa = phi i32 [ 0, %4 ], [ %88, %86 ]
  ret i32 %.0.lcssa
}